target datalayout = "e-m:e-p270:32:32-p271:32:32-p272:64:64-i64:64-i128:128-f80:128-n8:16:32:64-S128"
target triple = "x86_64-pc-linux-gnu"

%"class.gmx::GaussianOn1DLattice::Impl" = type { i32, i32, double, %"class.std::vector", %"class.std::vector" }
%"class.std::vector" = type { %"struct.std::_Vector_base" }
%"struct.std::_Vector_base" = type { %"struct.std::_Vector_base<float, std::allocator<float>>::_Vector_impl" }
%"struct.std::_Vector_base<float, std::allocator<float>>::_Vector_impl" = type { %"struct.std::_Vector_base<float, std::allocator<float>>::_Vector_impl_data" }
%"struct.std::_Vector_base<float, std::allocator<float>>::_Vector_impl_data" = type { ptr, ptr, ptr }

; Function Attrs: mustprogress nounwind uwtable
define linkonce_odr noundef nonnull align 4 dereferenceable(4) ptr @_ZNSt6vectorIfSaIfEEixEm(ptr noundef nonnull align 8 dereferenceable(24) %0, i64 noundef %1) #2 comdat align 2 {
  %3 = alloca ptr, align 8
  %4 = alloca i64, align 8
  store ptr %0, ptr %3, align 8, !tbaa !29
  store i64 %1, ptr %4, align 8, !tbaa !31
  %5 = load ptr, ptr %3, align 8
  %6 = getelementptr inbounds nuw %"struct.std::_Vector_base", ptr %5, i32 0, i32 0
  %7 = getelementptr inbounds nuw %"struct.std::_Vector_base<float, std::allocator<float>>::_Vector_impl_data", ptr %6, i32 0, i32 0
  %8 = load ptr, ptr %7, align 8, !tbaa !43
  %9 = load i64, ptr %4, align 8, !tbaa !31
  %10 = getelementptr inbounds nuw float, ptr %8, i64 %9
  ret ptr %10
}

; Function Attrs: mustprogress nounwind uwtable
define linkonce_odr noundef double @_ZN3gmx6squareIdEET_S1_(double noundef %0) #2 comdat {
  %2 = alloca double, align 8
  store double %0, ptr %2, align 8, !tbaa !26
  %3 = load double, ptr %2, align 8, !tbaa !26
  %4 = load double, ptr %2, align 8, !tbaa !26
  %5 = fmul double %3, %4
  ret double %5
}

; Function Attrs: mustprogress uwtable
define void @_ZN3gmx19GaussianOn1DLattice4Impl6spreadEdf(ptr noundef nonnull align 8 dereferenceable(64) %0, double noundef %1, float noundef %2) #0 align 2 {
  %4 = alloca ptr, align 8
  %5 = alloca double, align 8
  %6 = alloca float, align 4
  %7 = alloca double, align 8
  %8 = alloca double, align 8
  %9 = alloca double, align 8
  %10 = alloca i32, align 4
  %11 = alloca double, align 8
  store ptr %0, ptr %4, align 8, !tbaa !4
  store double %1, ptr %5, align 8, !tbaa !26
  store float %2, ptr %6, align 4, !tbaa !11
  %12 = load ptr, ptr %4, align 8
  call void @llvm.lifetime.start.p0(i64 8, ptr %7) #14
  %13 = load double, ptr %5, align 8, !tbaa !26
  %14 = load float, ptr %6, align 4, !tbaa !11
  %15 = fpext float %14 to double
  %16 = fmul double -5.000000e-01, %15
  %17 = load float, ptr %6, align 4, !tbaa !11
  %18 = fpext float %17 to double
  %19 = fmul double %16, %18
  %20 = getelementptr inbounds nuw %"class.gmx::GaussianOn1DLattice::Impl", ptr %12, i32 0, i32 2
  %21 = load double, ptr %20, align 8, !tbaa !21
  %22 = call noundef double @_ZN3gmx6squareIdEET_S1_(double noundef %21)
  %23 = fdiv double %19, %22
  %24 = call double @exp(double noundef %23) #14, !tbaa !9
  %25 = fmul double %13, %24
  %26 = call double @sqrt(double noundef 0x401921FB54442D18) #14, !tbaa !9
  %27 = getelementptr inbounds nuw %"class.gmx::GaussianOn1DLattice::Impl", ptr %12, i32 0, i32 2
  %28 = load double, ptr %27, align 8, !tbaa !21
  %29 = fmul double %26, %28
  %30 = fdiv double %25, %29
  store double %30, ptr %7, align 8, !tbaa !26
  %31 = load double, ptr %7, align 8, !tbaa !26
  %32 = fptrunc double %31 to float
  %33 = getelementptr inbounds nuw %"class.gmx::GaussianOn1DLattice::Impl", ptr %12, i32 0, i32 3
  %34 = getelementptr inbounds nuw %"class.gmx::GaussianOn1DLattice::Impl", ptr %12, i32 0, i32 0
  %35 = load i32, ptr %34, align 8, !tbaa !13
  %36 = sext i32 %35 to i64
  %37 = call noundef nonnull align 4 dereferenceable(4) ptr @_ZNSt6vectorIfSaIfEEixEm(ptr noundef nonnull align 8 dereferenceable(24) %33, i64 noundef %36) #14
  store float %32, ptr %37, align 4, !tbaa !11
  call void @llvm.lifetime.start.p0(i64 8, ptr %8) #14
  %38 = load float, ptr %6, align 4, !tbaa !11
  %39 = fpext float %38 to double
  %40 = getelementptr inbounds nuw %"class.gmx::GaussianOn1DLattice::Impl", ptr %12, i32 0, i32 2
  %41 = load double, ptr %40, align 8, !tbaa !21
  %42 = call noundef double @_ZN3gmx6squareIdEET_S1_(double noundef %41)
  %43 = fdiv double %39, %42
  %44 = call double @exp(double noundef %43) #14, !tbaa !9
  store double %44, ptr %8, align 8, !tbaa !26
  call void @llvm.lifetime.start.p0(i64 8, ptr %9) #14
  %45 = load double, ptr %8, align 8, !tbaa !26
  store double %45, ptr %9, align 8, !tbaa !26
  call void @llvm.lifetime.start.p0(i64 4, ptr %10) #14
  store i32 1, ptr %10, align 4, !tbaa !9
  br label %46

46:                                               ; preds = %86, %3
  %47 = load i32, ptr %10, align 4, !tbaa !9
  %48 = getelementptr inbounds nuw %"class.gmx::GaussianOn1DLattice::Impl", ptr %12, i32 0, i32 1
  %49 = load i32, ptr %48, align 4, !tbaa !22
  %50 = icmp slt i32 %47, %49
  br i1 %50, label %52, label %51

51:                                               ; preds = %46
  call void @llvm.lifetime.end.p0(i64 4, ptr %10) #14
  br label %89

52:                                               ; preds = %46
  call void @llvm.lifetime.start.p0(i64 8, ptr %11) #14
  %53 = load double, ptr %7, align 8, !tbaa !26
  %54 = getelementptr inbounds nuw %"class.gmx::GaussianOn1DLattice::Impl", ptr %12, i32 0, i32 4
  %55 = load i32, ptr %10, align 4, !tbaa !9
  %56 = sext i32 %55 to i64
  %57 = call noundef nonnull align 4 dereferenceable(4) ptr @_ZNSt6vectorIfSaIfEEixEm(ptr noundef nonnull align 8 dereferenceable(24) %54, i64 noundef %56) #14
  %58 = load float, ptr %57, align 4, !tbaa !11
  %59 = fpext float %58 to double
  %60 = fmul double %53, %59
  store double %60, ptr %11, align 8, !tbaa !26
  %61 = load double, ptr %11, align 8, !tbaa !26
  %62 = load double, ptr %9, align 8, !tbaa !26
  %63 = fmul double %61, %62
  %64 = fptrunc double %63 to float
  %65 = getelementptr inbounds nuw %"class.gmx::GaussianOn1DLattice::Impl", ptr %12, i32 0, i32 3
  %66 = getelementptr inbounds nuw %"class.gmx::GaussianOn1DLattice::Impl", ptr %12, i32 0, i32 0
  %67 = load i32, ptr %66, align 8, !tbaa !13
  %68 = load i32, ptr %10, align 4, !tbaa !9
  %69 = add nsw i32 %67, %68
  %70 = sext i32 %69 to i64
  %71 = call noundef nonnull align 4 dereferenceable(4) ptr @_ZNSt6vectorIfSaIfEEixEm(ptr noundef nonnull align 8 dereferenceable(24) %65, i64 noundef %70) #14
  store float %64, ptr %71, align 4, !tbaa !11
  %72 = load double, ptr %11, align 8, !tbaa !26
  %73 = load double, ptr %9, align 8, !tbaa !26
  %74 = fdiv double %72, %73
  %75 = fptrunc double %74 to float
  %76 = getelementptr inbounds nuw %"class.gmx::GaussianOn1DLattice::Impl", ptr %12, i32 0, i32 3
  %77 = getelementptr inbounds nuw %"class.gmx::GaussianOn1DLattice::Impl", ptr %12, i32 0, i32 0
  %78 = load i32, ptr %77, align 8, !tbaa !13
  %79 = load i32, ptr %10, align 4, !tbaa !9
  %80 = sub nsw i32 %78, %79
  %81 = sext i32 %80 to i64
  %82 = call noundef nonnull align 4 dereferenceable(4) ptr @_ZNSt6vectorIfSaIfEEixEm(ptr noundef nonnull align 8 dereferenceable(24) %76, i64 noundef %81) #14
  store float %75, ptr %82, align 4, !tbaa !11
  %83 = load double, ptr %8, align 8, !tbaa !26
  %84 = load double, ptr %9, align 8, !tbaa !26
  %85 = fmul double %84, %83
  store double %85, ptr %9, align 8, !tbaa !26
  call void @llvm.lifetime.end.p0(i64 8, ptr %11) #14
  br label %86

86:                                               ; preds = %52
  %87 = load i32, ptr %10, align 4, !tbaa !9
  %88 = add nsw i32 %87, 1
  store i32 %88, ptr %10, align 4, !tbaa !9
  br label %46, !llvm.loop !72

89:                                               ; preds = %51
  %90 = load double, ptr %7, align 8, !tbaa !26
  %91 = load double, ptr %9, align 8, !tbaa !26
  %92 = fdiv double %90, %91
  %93 = getelementptr inbounds nuw %"class.gmx::GaussianOn1DLattice::Impl", ptr %12, i32 0, i32 4
  %94 = getelementptr inbounds nuw %"class.gmx::GaussianOn1DLattice::Impl", ptr %12, i32 0, i32 1
  %95 = load i32, ptr %94, align 4, !tbaa !22
  %96 = sext i32 %95 to i64
  %97 = call noundef nonnull align 4 dereferenceable(4) ptr @_ZNSt6vectorIfSaIfEEixEm(ptr noundef nonnull align 8 dereferenceable(24) %93, i64 noundef %96) #14
  %98 = load float, ptr %97, align 4, !tbaa !11
  %99 = fpext float %98 to double
  %100 = fmul double %92, %99
  %101 = fptrunc double %100 to float
  %102 = getelementptr inbounds nuw %"class.gmx::GaussianOn1DLattice::Impl", ptr %12, i32 0, i32 3
  %103 = getelementptr inbounds nuw %"class.gmx::GaussianOn1DLattice::Impl", ptr %12, i32 0, i32 0
  %104 = load i32, ptr %103, align 8, !tbaa !13
  %105 = getelementptr inbounds nuw %"class.gmx::GaussianOn1DLattice::Impl", ptr %12, i32 0, i32 1
  %106 = load i32, ptr %105, align 4, !tbaa !22
  %107 = sub nsw i32 %104, %106
  %108 = sext i32 %107 to i64
  %109 = call noundef nonnull align 4 dereferenceable(4) ptr @_ZNSt6vectorIfSaIfEEixEm(ptr noundef nonnull align 8 dereferenceable(24) %102, i64 noundef %108) #14
  store float %101, ptr %109, align 4, !tbaa !11
  %110 = load double, ptr %7, align 8, !tbaa !26
  %111 = load double, ptr %9, align 8, !tbaa !26
  %112 = fmul double %110, %111
  %113 = getelementptr inbounds nuw %"class.gmx::GaussianOn1DLattice::Impl", ptr %12, i32 0, i32 4
  %114 = getelementptr inbounds nuw %"class.gmx::GaussianOn1DLattice::Impl", ptr %12, i32 0, i32 1
  %115 = load i32, ptr %114, align 4, !tbaa !22
  %116 = sext i32 %115 to i64
  %117 = call noundef nonnull align 4 dereferenceable(4) ptr @_ZNSt6vectorIfSaIfEEixEm(ptr noundef nonnull align 8 dereferenceable(24) %113, i64 noundef %116) #14
  %118 = load float, ptr %117, align 4, !tbaa !11
  %119 = fpext float %118 to double
  %120 = fmul double %112, %119
  %121 = fptrunc double %120 to float
  %122 = getelementptr inbounds nuw %"class.gmx::GaussianOn1DLattice::Impl", ptr %12, i32 0, i32 3
  %123 = getelementptr inbounds nuw %"class.gmx::GaussianOn1DLattice::Impl", ptr %12, i32 0, i32 0
  %124 = load i32, ptr %123, align 8, !tbaa !13
  %125 = getelementptr inbounds nuw %"class.gmx::GaussianOn1DLattice::Impl", ptr %12, i32 0, i32 1
  %126 = load i32, ptr %125, align 4, !tbaa !22
  %127 = add nsw i32 %124, %126
  %128 = sext i32 %127 to i64
  %129 = call noundef nonnull align 4 dereferenceable(4) ptr @_ZNSt6vectorIfSaIfEEixEm(ptr noundef nonnull align 8 dereferenceable(24) %122, i64 noundef %128) #14
  store float %121, ptr %129, align 4, !tbaa !11
  call void @llvm.lifetime.end.p0(i64 8, ptr %9) #14
  call void @llvm.lifetime.end.p0(i64 8, ptr %8) #14
  call void @llvm.lifetime.end.p0(i64 8, ptr %7) #14
  ret void
}