; Function Attrs: mustprogress nofree nounwind memory(readwrite, inaccessiblemem: write) uwtable
define void @_ZN3gmx19GaussianOn1DLattice4Impl6spreadEdf(ptr noundef nonnull readonly align 8 captures(none) dereferenceable(64) %0, double noundef %1, float noundef %2) local_unnamed_addr #8 align 2 {
  %4 = fpext float %2 to double
  %5 = fmul double %4, -5.000000e-01
  %6 = fmul double %5, %4
  %7 = getelementptr inbounds nuw i8, ptr %0, i64 8
  %8 = load double, ptr %7, align 8, !tbaa !16
  %9 = fmul double %8, %8
  %10 = fdiv double %6, %9
  %11 = tail call double @exp(double noundef %10) #22, !tbaa !23
  %12 = fmul double %1, %11
  %13 = fmul double %8, 0x40040D931FF62705
  %14 = fdiv double %12, %13
  %15 = fptrunc double %14 to float
  %16 = getelementptr inbounds nuw i8, ptr %0, i64 16
  %17 = load i32, ptr %0, align 8, !tbaa !4
  %18 = sext i32 %17 to i64
  %19 = load ptr, ptr %16, align 8, !tbaa !17
  %20 = getelementptr inbounds nuw float, ptr %19, i64 %18
  store float %15, ptr %20, align 4, !tbaa !19
  %21 = fdiv double %4, %9
  %22 = tail call double @exp(double noundef %21) #22, !tbaa !23
  %23 = getelementptr inbounds nuw i8, ptr %0, i64 4
  %24 = load i32, ptr %23, align 4, !tbaa !22
  %25 = icmp sgt i32 %24, 1
  %26 = getelementptr inbounds nuw i8, ptr %0, i64 40
  %27 = load ptr, ptr %26, align 8, !tbaa !17
  %28 = load i32, ptr %0, align 8, !tbaa !4
  br i1 %25, label %.lr.ph, label %._crit_edge

.lr.ph:                                           ; preds = %3
  %29 = sext i32 %28 to i64
  %wide.trip.count = zext nneg i32 %24 to i64
  %invariant.gep = getelementptr float, ptr %19, i64 %29
  br label %48

._crit_edge:                                      ; preds = %48, %3
  %.0.lcssa = phi double [ %22, %3 ], [ %59, %48 ]
  %30 = fdiv double %14, %.0.lcssa
  %31 = sext i32 %24 to i64
  %32 = getelementptr inbounds nuw float, ptr %27, i64 %31
  %33 = load float, ptr %32, align 4, !tbaa !19
  %34 = fpext float %33 to double
  %35 = fmul double %30, %34
  %36 = fptrunc double %35 to float
  %37 = sub nsw i32 %28, %24
  %38 = sext i32 %37 to i64
  %39 = getelementptr inbounds nuw float, ptr %19, i64 %38
  store float %36, ptr %39, align 4, !tbaa !19
  %40 = fmul double %14, %.0.lcssa
  %41 = load float, ptr %32, align 4, !tbaa !19
  %42 = fpext float %41 to double
  %43 = fmul double %40, %42
  %44 = fptrunc double %43 to float
  %45 = add nsw i32 %28, %24
  %46 = sext i32 %45 to i64
  %47 = getelementptr inbounds nuw float, ptr %19, i64 %46
  store float %44, ptr %47, align 4, !tbaa !19
  ret void

48:                                               ; preds = %.lr.ph, %48
  %indvars.iv = phi i64 [ 1, %.lr.ph ], [ %indvars.iv.next, %48 ]
  %.025 = phi double [ %22, %.lr.ph ], [ %59, %48 ]
  %49 = getelementptr inbounds nuw float, ptr %27, i64 %indvars.iv
  %50 = load float, ptr %49, align 4, !tbaa !19
  %51 = fpext float %50 to double
  %52 = fmul double %14, %51
  %53 = fmul double %.025, %52
  %54 = fptrunc double %53 to float
  %gep = getelementptr float, ptr %invariant.gep, i64 %indvars.iv
  store float %54, ptr %gep, align 4, !tbaa !19
  %55 = fdiv double %52, %.025
  %56 = fptrunc double %55 to float
  %57 = sub nsw i64 %29, %indvars.iv
  %58 = getelementptr inbounds nuw float, ptr %19, i64 %57
  store float %56, ptr %58, align 4, !tbaa !19
  %59 = fmul double %22, %.025
  %indvars.iv.next = add nuw nsw i64 %indvars.iv, 1
  %exitcond.not = icmp eq i64 %indvars.iv.next, %wide.trip.count
  br i1 %exitcond.not, label %._crit_edge, label %48, !llvm.loop !27
}